target datalayout = "e-m:e-p270:32:32-p271:32:32-p272:64:64-i64:64-i128:128-f80:128-n8:16:32:64-S128"
target triple = "x86_64-unknown-linux-gnu"

%struct.alts_grpc_handshaker_client = type { %struct.alts_handshaker_client, %struct.gpr_refcount, ptr, ptr, ptr, %struct.grpc_closure, ptr, ptr, i8, %struct.grpc_metadata_array, ptr, ptr, ptr, %struct.grpc_slice, i8, %struct.grpc_slice, ptr, i64, %struct.grpc_closure, i32, %struct.grpc_slice, %"class.absl::lts_20230802::Mutex", i8, ptr, i64, ptr }
%struct.alts_handshaker_client = type { ptr }
%struct.gpr_refcount = type { i64 }
%struct.grpc_metadata_array = type { i64, i64, ptr }
%struct.grpc_closure = type { %union.anon, ptr, ptr, %union.anon.0 }
%union.anon = type { ptr }
%union.anon.0 = type { i64 }
%struct.grpc_slice = type { ptr, %"union.grpc_slice::grpc_slice_data" }
%"union.grpc_slice::grpc_slice_data" = type { %"struct.grpc_slice::grpc_slice_data::grpc_slice_refcounted", [8 x i8] }
%"struct.grpc_slice::grpc_slice_data::grpc_slice_refcounted" = type { i64, ptr }
%"class.absl::lts_20230802::Mutex" = type { %"struct.std::atomic" }
%"struct.std::atomic" = type { %"struct.std::__atomic_base" }
%"struct.std::__atomic_base" = type { i64 }
%struct.recv_message_result = type { i32, ptr, i64, ptr }
%"class.absl::lts_20230802::MutexLock" = type { ptr }

@.str = private unnamed_addr constant [142 x i8] c"generated/home/dtcxzyw/WorkSpace/Projects/compilers/llvm-opt-benchmark/bench/grpc/grpc/src/core/tsi/alts/handshaker/alts_handshaker_client.cc\00", align 1
@.str.24 = private unnamed_addr constant [47 x i8] c"client->pending_recv_message_result == nullptr\00", align 1

; Function Attrs: mustprogress nounwind uwtable
define linkonce_odr void @_ZN4absl12lts_202308029MutexLockD2Ev(ptr noundef nonnull align 8 dereferenceable(8) %this) unnamed_addr #6 comdat align 2 personality ptr @__gxx_personality_v0 {
entry:
  %this.addr = alloca ptr, align 8
  store ptr %this, ptr %this.addr, align 8
  %this1 = load ptr, ptr %this.addr, align 8
  %mu_ = getelementptr inbounds %"class.absl::lts_20230802::MutexLock", ptr %this1, i32 0, i32 0
  %0 = load ptr, ptr %mu_, align 8
  invoke void @_ZN4absl12lts_202308025Mutex6UnlockEv(ptr noundef nonnull align 8 dereferenceable(8) %0)
          to label %invoke.cont unwind label %terminate.lpad

invoke.cont:                                      ; preds = %entry
  ret void

terminate.lpad:                                   ; preds = %entry
  %1 = landingpad { ptr, i32 }
          catch ptr null
  %2 = extractvalue { ptr, i32 } %1, 0
  call void @__clang_call_terminate(ptr %2) #20
  unreachable
}

; Function Attrs: mustprogress uwtable
define linkonce_odr void @_ZN4absl12lts_202308029MutexLockC2EPNS0_5MutexE(ptr noundef nonnull align 8 dereferenceable(8) %this, ptr noundef %mu) unnamed_addr #4 comdat align 2 {
entry:
  %this.addr = alloca ptr, align 8
  %mu.addr = alloca ptr, align 8
  store ptr %this, ptr %this.addr, align 8
  store ptr %mu, ptr %mu.addr, align 8
  %this1 = load ptr, ptr %this.addr, align 8
  %mu_ = getelementptr inbounds %"class.absl::lts_20230802::MutexLock", ptr %this1, i32 0, i32 0
  %0 = load ptr, ptr %mu.addr, align 8
  store ptr %0, ptr %mu_, align 8
  %mu_2 = getelementptr inbounds %"class.absl::lts_20230802::MutexLock", ptr %this1, i32 0, i32 0
  %1 = load ptr, ptr %mu_2, align 8
  call void @_ZN4absl12lts_202308025Mutex4LockEv(ptr noundef nonnull align 8 dereferenceable(8) %1)
  ret void
}

; Function Attrs: mustprogress uwtable
define internal void @_ZL23maybe_complete_tsi_nextP27alts_grpc_handshaker_clientbP19recv_message_result(ptr noundef %client, i1 noundef zeroext %receive_status_finished, ptr noundef %pending_recv_message_result) #4 personality ptr @__gxx_personality_v0 {
entry:
  %client.addr = alloca ptr, align 8
  %receive_status_finished.addr = alloca i8, align 1
  %pending_recv_message_result.addr = alloca ptr, align 8
  %r = alloca ptr, align 8
  %lock = alloca %"class.absl::lts_20230802::MutexLock", align 8
  %exn.slot = alloca ptr, align 8
  %ehselector.slot = alloca i32, align 4
  %cleanup.dest.slot = alloca i32, align 4
  %have_final_result = alloca i8, align 1
  store ptr %client, ptr %client.addr, align 8
  %frombool = zext i1 %receive_status_finished to i8
  store i8 %frombool, ptr %receive_status_finished.addr, align 1
  store ptr %pending_recv_message_result, ptr %pending_recv_message_result.addr, align 8
  %0 = load ptr, ptr %client.addr, align 8
  %mu = getelementptr inbounds %struct.alts_grpc_handshaker_client, ptr %0, i32 0, i32 21
  call void @_ZN4absl12lts_202308029MutexLockC2EPNS0_5MutexE(ptr noundef nonnull align 8 dereferenceable(8) %lock, ptr noundef %mu)
  %1 = load i8, ptr %receive_status_finished.addr, align 1
  %tobool = trunc i8 %1 to i1
  %conv = zext i1 %tobool to i32
  %2 = load ptr, ptr %client.addr, align 8
  %receive_status_finished1 = getelementptr inbounds %struct.alts_grpc_handshaker_client, ptr %2, i32 0, i32 22
  %3 = load i8, ptr %receive_status_finished1, align 8
  %tobool2 = trunc i8 %3 to i1
  %conv3 = zext i1 %tobool2 to i32
  %or = or i32 %conv3, %conv
  %tobool4 = icmp ne i32 %or, 0
  %frombool5 = zext i1 %tobool4 to i8
  store i8 %frombool5, ptr %receive_status_finished1, align 8
  %4 = load ptr, ptr %pending_recv_message_result.addr, align 8
  %cmp = icmp ne ptr %4, null
  br i1 %cmp, label %if.then, label %if.end11

if.then:                                          ; preds = %entry
  br label %do.body

do.body:                                          ; preds = %if.then
  %5 = load ptr, ptr %client.addr, align 8
  %pending_recv_message_result6 = getelementptr inbounds %struct.alts_grpc_handshaker_client, ptr %5, i32 0, i32 23
  %6 = load ptr, ptr %pending_recv_message_result6, align 8
  %cmp7 = icmp eq ptr %6, null
  %lnot = xor i1 %cmp7, true
  br i1 %lnot, label %if.then9, label %if.end

if.then9:                                         ; preds = %do.body
  invoke void @gpr_assertion_failed(ptr noundef @.str, i32 noundef 160, ptr noundef @.str.24) #16
          to label %invoke.cont unwind label %lpad

invoke.cont:                                      ; preds = %if.then9
  unreachable

lpad:                                             ; preds = %if.then9
  %7 = landingpad { ptr, i32 }
          cleanup
  %8 = extractvalue { ptr, i32 } %7, 0
  store ptr %8, ptr %exn.slot, align 8
  %9 = extractvalue { ptr, i32 } %7, 1
  store i32 %9, ptr %ehselector.slot, align 4
  call void @_ZN4absl12lts_202308029MutexLockD2Ev(ptr noundef nonnull align 8 dereferenceable(8) %lock) #3
  br label %eh.resume

if.end:                                           ; preds = %do.body
  br label %do.cond

do.cond:                                          ; preds = %if.end
  br label %do.end

do.end:                                           ; preds = %do.cond
  %10 = load ptr, ptr %pending_recv_message_result.addr, align 8
  %11 = load ptr, ptr %client.addr, align 8
  %pending_recv_message_result10 = getelementptr inbounds %struct.alts_grpc_handshaker_client, ptr %11, i32 0, i32 23
  store ptr %10, ptr %pending_recv_message_result10, align 8
  br label %if.end11

if.end11:                                         ; preds = %do.end, %entry
  %12 = load ptr, ptr %client.addr, align 8
  %pending_recv_message_result12 = getelementptr inbounds %struct.alts_grpc_handshaker_client, ptr %12, i32 0, i32 23
  %13 = load ptr, ptr %pending_recv_message_result12, align 8
  %cmp13 = icmp eq ptr %13, null
  br i1 %cmp13, label %if.then14, label %if.end15

if.then14:                                        ; preds = %if.end11
  store i32 1, ptr %cleanup.dest.slot, align 4
  br label %cleanup

if.end15:                                         ; preds = %if.end11
  %14 = load ptr, ptr %client.addr, align 8
  %pending_recv_message_result16 = getelementptr inbounds %struct.alts_grpc_handshaker_client, ptr %14, i32 0, i32 23
  %15 = load ptr, ptr %pending_recv_message_result16, align 8
  %result = getelementptr inbounds %struct.recv_message_result, ptr %15, i32 0, i32 3
  %16 = load ptr, ptr %result, align 8
  %cmp17 = icmp ne ptr %16, null
  br i1 %cmp17, label %lor.end, label %lor.rhs

lor.rhs:                                          ; preds = %if.end15
  %17 = load ptr, ptr %client.addr, align 8
  %pending_recv_message_result18 = getelementptr inbounds %struct.alts_grpc_handshaker_client, ptr %17, i32 0, i32 23
  %18 = load ptr, ptr %pending_recv_message_result18, align 8
  %status = getelementptr inbounds %struct.recv_message_result, ptr %18, i32 0, i32 0
  %19 = load i32, ptr %status, align 8
  %cmp19 = icmp ne i32 %19, 0
  br label %lor.end

lor.end:                                          ; preds = %lor.rhs, %if.end15
  %20 = phi i1 [ true, %if.end15 ], [ %cmp19, %lor.rhs ]
  %frombool20 = zext i1 %20 to i8
  store i8 %frombool20, ptr %have_final_result, align 1
  %21 = load i8, ptr %have_final_result, align 1
  %tobool21 = trunc i8 %21 to i1
  br i1 %tobool21, label %land.lhs.true, label %if.end25

land.lhs.true:                                    ; preds = %lor.end
  %22 = load ptr, ptr %client.addr, align 8
  %receive_status_finished22 = getelementptr inbounds %struct.alts_grpc_handshaker_client, ptr %22, i32 0, i32 22
  %23 = load i8, ptr %receive_status_finished22, align 8
  %tobool23 = trunc i8 %23 to i1
  br i1 %tobool23, label %if.end25, label %if.then24

if.then24:                                        ; preds = %land.lhs.true
  store i32 1, ptr %cleanup.dest.slot, align 4
  br label %cleanup

if.end25:                                         ; preds = %land.lhs.true, %lor.end
  %24 = load ptr, ptr %client.addr, align 8
  %pending_recv_message_result26 = getelementptr inbounds %struct.alts_grpc_handshaker_client, ptr %24, i32 0, i32 23
  %25 = load ptr, ptr %pending_recv_message_result26, align 8
  store ptr %25, ptr %r, align 8
  %26 = load ptr, ptr %client.addr, align 8
  %pending_recv_message_result27 = getelementptr inbounds %struct.alts_grpc_handshaker_client, ptr %26, i32 0, i32 23
  store ptr null, ptr %pending_recv_message_result27, align 8
  store i32 0, ptr %cleanup.dest.slot, align 4
  br label %cleanup

cleanup:                                          ; preds = %if.end25, %if.then24, %if.then14
  call void @_ZN4absl12lts_202308029MutexLockD2Ev(ptr noundef nonnull align 8 dereferenceable(8) %lock) #3
  %cleanup.dest = load i32, ptr %cleanup.dest.slot, align 4
  switch i32 %cleanup.dest, label %unreachable [
    i32 0, label %cleanup.cont
    i32 1, label %return
  ]

cleanup.cont:                                     ; preds = %cleanup
  %27 = load ptr, ptr %client.addr, align 8
  %cb = getelementptr inbounds %struct.alts_grpc_handshaker_client, ptr %27, i32 0, i32 10
  %28 = load ptr, ptr %cb, align 8
  %29 = load ptr, ptr %r, align 8
  %status28 = getelementptr inbounds %struct.recv_message_result, ptr %29, i32 0, i32 0
  %30 = load i32, ptr %status28, align 8
  %31 = load ptr, ptr %client.addr, align 8
  %user_data = getelementptr inbounds %struct.alts_grpc_handshaker_client, ptr %31, i32 0, i32 11
  %32 = load ptr, ptr %user_data, align 8
  %33 = load ptr, ptr %r, align 8
  %bytes_to_send = getelementptr inbounds %struct.recv_message_result, ptr %33, i32 0, i32 1
  %34 = load ptr, ptr %bytes_to_send, align 8
  %35 = load ptr, ptr %r, align 8
  %bytes_to_send_size = getelementptr inbounds %struct.recv_message_result, ptr %35, i32 0, i32 2
  %36 = load i64, ptr %bytes_to_send_size, align 8
  %37 = load ptr, ptr %r, align 8
  %result29 = getelementptr inbounds %struct.recv_message_result, ptr %37, i32 0, i32 3
  %38 = load ptr, ptr %result29, align 8
  call void %28(i32 noundef %30, ptr noundef %32, ptr noundef %34, i64 noundef %36, ptr noundef %38)
  %39 = load ptr, ptr %r, align 8
  call void @gpr_free(ptr noundef %39)
  br label %return

return:                                           ; preds = %cleanup.cont, %cleanup
  ret void

eh.resume:                                        ; preds = %lpad
  %exn = load ptr, ptr %exn.slot, align 8
  %sel = load i32, ptr %ehselector.slot, align 4
  %lpad.val = insertvalue { ptr, i32 } poison, ptr %exn, 0
  %lpad.val30 = insertvalue { ptr, i32 } %lpad.val, i32 %sel, 1
  resume { ptr, i32 } %lpad.val30

unreachable:                                      ; preds = %cleanup
  unreachable
}