; Function Attrs: mustprogress uwtable
define internal fastcc void @_ZL23maybe_complete_tsi_nextP27alts_grpc_handshaker_clientbP19recv_message_result(ptr noundef %client, i1 noundef zeroext %receive_status_finished, ptr noundef %pending_recv_message_result) unnamed_addr #3 personality ptr @__gxx_personality_v0 {
entry:
  %mu = getelementptr inbounds i8, ptr %client, i64 304
  tail call void @_ZN4absl12lts_202308025Mutex4LockEv(ptr noundef nonnull align 8 dereferenceable(8) %mu)
  %receive_status_finished1 = getelementptr inbounds i8, ptr %client, i64 312
  %0 = load i8, ptr %receive_status_finished1, align 8
  %1 = and i8 %0, 1
  %2 = zext i1 %receive_status_finished to i8
  %3 = or i8 %1, %2
  store i8 %3, ptr %receive_status_finished1, align 8
  %cmp.not = icmp eq ptr %pending_recv_message_result, null
  %pending_recv_message_result12.phi.trans.insert = getelementptr inbounds i8, ptr %client, i64 320
  %.pre = load ptr, ptr %pending_recv_message_result12.phi.trans.insert, align 8
  %cmp13 = icmp eq ptr %.pre, null
  br i1 %cmp.not, label %if.end11, label %do.body

do.body:                                          ; preds = %entry
  br i1 %cmp13, label %if.end11.thread, label %if.then9

if.then9:                                         ; preds = %do.body
  invoke void @gpr_assertion_failed(ptr noundef nonnull @.str, i32 noundef 160, ptr noundef nonnull @.str.24) #17
          to label %invoke.cont unwind label %lpad

invoke.cont:                                      ; preds = %if.then9
  unreachable

lpad:                                             ; preds = %if.then9
  %4 = landingpad { ptr, i32 }
          cleanup
  invoke void @_ZN4absl12lts_202308025Mutex6UnlockEv(ptr noundef nonnull align 8 dereferenceable(8) %mu)
          to label %_ZN4absl12lts_202308029MutexLockD2Ev.exit unwind label %terminate.lpad.i

terminate.lpad.i:                                 ; preds = %lpad
  %5 = landingpad { ptr, i32 }
          catch ptr null
  %6 = extractvalue { ptr, i32 } %5, 0
  tail call void @__clang_call_terminate(ptr %6) #19
  unreachable

_ZN4absl12lts_202308029MutexLockD2Ev.exit:        ; preds = %lpad
  resume { ptr, i32 } %4

if.end11.thread:                                  ; preds = %do.body
  store ptr %pending_recv_message_result, ptr %pending_recv_message_result12.phi.trans.insert, align 8
  br label %if.end15

if.end11:                                         ; preds = %entry
  br i1 %cmp13, label %cleanup, label %if.end15

if.end15:                                         ; preds = %if.end11.thread, %if.end11
  %7 = phi ptr [ %pending_recv_message_result, %if.end11.thread ], [ %.pre, %if.end11 ]
  %pending_recv_message_result1222 = getelementptr inbounds i8, ptr %client, i64 320
  %result = getelementptr inbounds i8, ptr %7, i64 24
  %8 = load ptr, ptr %result, align 8
  %cmp17.not = icmp eq ptr %8, null
  br i1 %cmp17.not, label %lor.rhs, label %land.lhs.true

lor.rhs:                                          ; preds = %if.end15
  %9 = load i32, ptr %7, align 8
  %cmp19 = icmp ne i32 %9, 0
  %tobool23.not = icmp eq i8 %3, 0
  %or.cond = select i1 %cmp19, i1 %tobool23.not, i1 false
  br i1 %or.cond, label %cleanup, label %if.end25

land.lhs.true:                                    ; preds = %if.end15
  %tobool23.not.old = icmp eq i8 %3, 0
  br i1 %tobool23.not.old, label %cleanup, label %if.end25

if.end25:                                         ; preds = %land.lhs.true, %lor.rhs
  store ptr null, ptr %pending_recv_message_result1222, align 8
  br label %cleanup

cleanup:                                          ; preds = %lor.rhs, %land.lhs.true, %if.end11, %if.end25
  %10 = phi ptr [ %7, %if.end25 ], [ null, %if.end11 ], [ %7, %land.lhs.true ], [ %7, %lor.rhs ]
  %cleanup.dest.slot.0 = phi i1 [ true, %if.end25 ], [ false, %if.end11 ], [ false, %land.lhs.true ], [ false, %lor.rhs ]
  invoke void @_ZN4absl12lts_202308025Mutex6UnlockEv(ptr noundef nonnull align 8 dereferenceable(8) %mu)
          to label %_ZN4absl12lts_202308029MutexLockD2Ev.exit18 unwind label %terminate.lpad.i17

terminate.lpad.i17:                               ; preds = %cleanup
  %11 = landingpad { ptr, i32 }
          catch ptr null
  %12 = extractvalue { ptr, i32 } %11, 0
  tail call void @__clang_call_terminate(ptr %12) #19
  unreachable

_ZN4absl12lts_202308029MutexLockD2Ev.exit18:      ; preds = %cleanup
  br i1 %cleanup.dest.slot.0, label %cleanup.cont, label %return

cleanup.cont:                                     ; preds = %_ZN4absl12lts_202308029MutexLockD2Ev.exit18
  %cb = getelementptr inbounds i8, ptr %client, i64 120
  %13 = load ptr, ptr %cb, align 8
  %14 = load i32, ptr %10, align 8
  %user_data = getelementptr inbounds i8, ptr %client, i64 128
  %15 = load ptr, ptr %user_data, align 8
  %bytes_to_send = getelementptr inbounds i8, ptr %10, i64 8
  %16 = load ptr, ptr %bytes_to_send, align 8
  %bytes_to_send_size = getelementptr inbounds i8, ptr %10, i64 16
  %17 = load i64, ptr %bytes_to_send_size, align 8
  %result29 = getelementptr inbounds i8, ptr %10, i64 24
  %18 = load ptr, ptr %result29, align 8
  tail call void %13(i32 noundef %14, ptr noundef %15, ptr noundef %16, i64 noundef %17, ptr noundef %18)
  tail call void @gpr_free(ptr noundef nonnull %10)
  br label %return

return:                                           ; preds = %_ZN4absl12lts_202308029MutexLockD2Ev.exit18, %cleanup.cont
  ret void
}